(lp0
(dp1
Vdomain
p2
V.amazon.com
p3
sVname
p4
Vappstore-devportal-locale
p5
sVvalue
p6
Ven_US
p7
sVexpiry
p8
NsVpath
p9
V/
p10
sVhttpOnly
p11
I00
sVsecure
p12
I00
sa(dp13
Vdomain
p14
Vdeveloper.amazon.com
p15
sVname
p16
V_sdsat_landing_page
p17
sVvalue
p18
Vhttps://developer.amazon.com/?captcha_verified=1&|1540049513804
p19
sVexpiry
p20
NsVpath
p21
g10
sVhttpOnly
p22
I00
sVsecure
p23
I00
sa(dp24
Vdomain
p25
Vdeveloper.amazon.com
p26
sVname
p27
V_sdsat_session_count
p28
sVvalue
p29
V1
p30
sVexpiry
p31
I1603121513
sVpath
p32
g10
sVhttpOnly
p33
I00
sVsecure
p34
I00
sa(dp35
Vdomain
p36
Vdeveloper.amazon.com
p37
sVname
p38
V_sdsat_traffic_source
p39
sVvalue
p40
Vhttps://www.amazon.com/ap/signin/133-5576500-0349152
p41
sVexpiry
p42
NsVpath
p43
g10
sVhttpOnly
p44
I00
sVsecure
p45
I00
sa(dp46
Vdomain
p47
Vdeveloper.amazon.com
p48
sVname
p49
V_sdsat_sessionCount
p50
sVvalue
p51
g30
sVexpiry
p52
NsVpath
p53
g10
sVhttpOnly
p54
I00
sVsecure
p55
I00
sa(dp56
Vdomain
p57
V.amazon.com
p58
sVname
p59
V_mkto_trk
p60
sVvalue
p61
Vid:365-EFI-026&token:_mch-amazon.com-1540049514228-82252
p62
sVexpiry
p63
I1603121514
sVpath
p64
g10
sVhttpOnly
p65
I00
sVsecure
p66
I00
sa(dp67
Vdomain
p68
V.amazon.com
p69
sVname
p70
VAMCVS_4A8581745834114C0A495E2B%40AdobeOrg
p71
sVvalue
p72
g30
sVexpiry
p73
NsVpath
p74
g10
sVhttpOnly
p75
I00
sVsecure
p76
I00
sa(dp77
Vdomain
p78
V.amazon.com
p79
sVname
p80
VAMCV_4A8581745834114C0A495E2B%40AdobeOrg
p81
sVvalue
p82
V-330454231%7CMCIDTS%7C17825%7CMCMID%7C42138525884500204753265553784077900249%7CMCOPTOUT-1540056714s%7CNONE%7CMCAID%7CNONE%7CvVersion%7C3.1.2
p83
sVexpiry
p84
I1603207915
sVpath
p85
g10
sVhttpOnly
p86
I00
sVsecure
p87
I00
sa(dp88
Vdomain
p89
V.amazon.com
p90
sVname
p91
Vs_cc
p92
sVvalue
p93
Vtrue
p94
sVexpiry
p95
NsVpath
p96
g10
sVhttpOnly
p97
I00
sVsecure
p98
I00
sa(dp99
Vdomain
p100
V.amazon.com
p101
sVname
p102
Vlc-main
p103
sVvalue
p104
Ven_US
p105
sVexpiry
p106
NsVpath
p107
g10
sVhttpOnly
p108
I00
sVsecure
p109
I00
sa(dp110
Vdomain
p111
V.amazon.com
p112
sVname
p113
Vubid-main
p114
sVvalue
p115
V130-8494662-8757631
p116
sVexpiry
p117
I2170769556
sVpath
p118
g10
sVhttpOnly
p119
I00
sVsecure
p120
I00
sa(dp121
Vdomain
p122
V.amazon.com
p123
sVname
p124
Vx-main
p125
sVvalue
p126
V"PIOhi62h@nHIAmTqQ9penIevqzWMcYCXrvDEPtUUBrJyo40vak4z75v59xcwynQk"
p127
sVexpiry
p128
I2170769556
sVpath
p129
g10
sVhttpOnly
p130
I00
sVsecure
p131
I00
sa(dp132
Vdomain
p133
V.amazon.com
p134
sVname
p135
Vat-main
p136
sVvalue
p137
VAtza|IwEBIKJm24yNIJxZcQ00YqNDold7jtXw06FdLEwin7AJbCkXQN_6_BPXTX6kALlZDD7svwguY5axtH-fVh8_Ia33y24lhMP985nMGCQTovYzeoyBXaQo2d_gNRIxbPo2LB_hV4zQOKF36UuVpyF5IKPOJ1dtHVIlItJQSTIbiO-qYoiRY-iehtVhm938n48BiTt6O-xDQdheqnocwU0t6nYqmKdgve5yU4WEWjdrOBoAbNFE_FcJyMirNvZLPz_QCXfkke1sBdHkqaNQGYrx4tLvHniCagZ1DvyAR0zcEddtQWNkb5_pcCFoKru5K3K83XN1nf-zGmgChAbAFY4qpDS5BUCYwqklfGdxPkMg3SvmUF7ZhnXK3GNgNqXrC7uvU6_KosUwgvtAyTSM3S9rO7bN_CH-
p138
sVexpiry
p139
I2170769556
sVpath
p140
g10
sVhttpOnly
p141
I01
sVsecure
p142
I01
sa(dp143
Vdomain
p144
V.amazon.com
p145
sVname
p146
Vsess-at-main
p147
sVvalue
p148
V"j4HHZgfA8E88D6tV6L1sA39cd6YcBOe/YEicPpAxnAs="
p149
sVexpiry
p150
I2170769556
sVpath
p151
g10
sVhttpOnly
p152
I01
sVsecure
p153
I01
sa(dp154
Vdomain
p155
V.amazon.com
p156
sVname
p157
Vsst-main
p158
sVvalue
p159
VSst1|PQGbVZEQRpbAAERlxWlEjqARC5M65WtwAVLnx28UXH3kQmxhBQCuaEeyOSaMTggX1O_Goq-TAOh54_BWLzFgH_8YHljRrPE-CHY-Ai-4o20ULITVjWBWhZdHDaB8UQGuaZzjl_htOk9IXQgiR0r-mv3Yt3JGGWYozRCBTSKriygNYatilGgLne3SGOGhzI9v1Gau7dmblD_CfqcyJ7I_zNuNAla_StS-3JKE2SjBNz4RxKv3VaM3PGiaJ7FL9Hx5Ah2hg96XkT-yIv4Jwaa3R1_97LwJVDE5usmA3rGHgWOlDCa9GbpyM8rUfDTXkMXIWN1bMaA0x6b1cN2LMONjcSOpWg
p160
sVexpiry
p161
I2170769556
sVpath
p162
g10
sVhttpOnly
p163
I01
sVsecure
p164
I01
sa(dp165
Vdomain
p166
Vdeveloper.amazon.com
p167
sVname
p168
V_sdsat_lt_pages_viewed
p169
sVvalue
p170
V2
p171
sVexpiry
p172
I1603121558
sVpath
p173
g10
sVhttpOnly
p174
I00
sVsecure
p175
I00
sa(dp176
Vdomain
p177
Vdeveloper.amazon.com
p178
sVname
p179
V_sdsat_pages_viewed
p180
sVvalue
p181
g171
sVexpiry
p182
NsVpath
p183
g10
sVhttpOnly
p184
I00
sVsecure
p185
I00
sa(dp186
Vdomain
p187
Vdeveloper.amazon.com
p188
sVname
p189
V_sdsat_marketingCloudCookie
p190
sVvalue
p191
V-330454231%7CMCIDTS%7C17825%7CMCMID%7C42138525884500204753265553784077900249%7CMCOPTOUT-1540056714s%7CNONE%7CMCAID%7CNONE%7CvVersion%7C3.1.2
p192
sVexpiry
p193
NsVpath
p194
g10
sVhttpOnly
p195
I00
sVsecure
p196
I00
sa(dp197
Vdomain
p198
V.amazon.com
p199
sVname
p200
Vs_nr
p201
sVvalue
p202
V1540049563365-New
p203
sVexpiry
p204
I1547825563
sVpath
p205
g10
sVhttpOnly
p206
I00
sVsecure
p207
I00
sa(dp208
Vdomain
p209
V.amazon.com
p210
sVname
p211
Vs_lv
p212
sVvalue
p213
V1540049563367
p214
sVexpiry
p215
I1634657563
sVpath
p216
g10
sVhttpOnly
p217
I00
sVsecure
p218
I00
sa(dp219
Vdomain
p220
V.amazon.com
p221
sVname
p222
Vs_lv_s
p223
sVvalue
p224
VFirst%20Visit
p225
sVexpiry
p226
I1540051363
sVpath
p227
g10
sVhttpOnly
p228
I00
sVsecure
p229
I00
sa(dp230
Vdomain
p231
V.amazon.com
p232
sVname
p233
Vreferrer_session
p234
sVvalue
p235
V{%22full_referrer%22:%22https://www.amazon.com/ap/signin%22}
p236
sVexpiry
p237
NsVpath
p238
g10
sVhttpOnly
p239
I00
sVsecure
p240
I00
sa(dp241
Vdomain
p242
Vdeveloper.amazon.com
p243
sVname
p244
Vcsm-hit
p245
sVvalue
p246
Vtb:MA3MWPAZV21EDKCWWY7B+s-MA3MWPAZV21EDKCWWY7B|1540049565021&adb:adblk_no
p247
sVexpiry
p248
I1540654365
sVpath
p249
g10
sVhttpOnly
p250
I00
sVsecure
p251
I00
sa(dp252
Vdomain
p253
V.amazon.com
p254
sVname
p255
Vsession-id
p256
sVvalue
p257
V133-5576500-0349152
p258
sVexpiry
p259
I2082787201
sVpath
p260
g10
sVhttpOnly
p261
I00
sVsecure
p262
I00
sa(dp263
Vdomain
p264
V.amazon.com
p265
sVname
p266
Vsession-id-time
p267
sVvalue
p268
V2082787201l
p269
sVexpiry
p270
I2082787201
sVpath
p271
g10
sVhttpOnly
p272
I00
sVsecure
p273
I00
sa(dp274
Vdomain
p275
V.amazon.com
p276
sVname
p277
Vsession-token
p278
sVvalue
p279
V"+5nh85E74qA5C8Hd/+xnBHdl4oESzmtlZkwsSpu1DvZof2rJqHrHUzdbrMuociQQlC/reEPe71luiEyvJtbG9MQnahIX44EtcG/YdFqU+kmUZAkPo8wGtvLC39pMyPNrf0vRjHi8vriwpPqvKO7ysp/5kpOpSpOpO6LaZekavC8wi7hgnMh32fZQtkqAYTKNwtT/ku+6iGOURi/529jgiAOUvvtT/1MONVc/FBB7bwo="
p280
sVexpiry
p281
I2082787201
sVpath
p282
g10
sVhttpOnly
p283
I00
sVsecure
p284
I00
sa.